target datalayout = "e-m:e-p270:32:32-p271:32:32-p272:64:64-i64:64-i128:128-f80:128-n8:16:32:64-S128"
target triple = "x86_64-pc-linux-gnu"

@update_node_active_features.last_active_features = internal global ptr null, align 8
@update_node_active_features.last_node_bitmap = internal global ptr null, align 8
@.str.51 = private unnamed_addr constant [27 x i8] c"%s: invalid node_name (%s)\00", align 1
@__func__.update_node_active_features = private unnamed_addr constant [28 x i8] c"update_node_active_features\00", align 1
@active_feature_list = external global ptr, align 8
@.str.52 = private unnamed_addr constant [7 x i8] c"active\00", align 1

; Function Attrs: nounwind uwtable
define dso_local i32 @update_node_active_features(ptr noundef %0, ptr noundef %1, i32 noundef %2) #0 {
  %4 = alloca i32, align 4
  %5 = alloca ptr, align 8
  %6 = alloca ptr, align 8
  %7 = alloca i32, align 4
  %8 = alloca ptr, align 8
  %9 = alloca i32, align 4
  %10 = alloca i32, align 4
  store ptr %0, ptr %5, align 8
  store ptr %1, ptr %6, align 8
  store i32 %2, ptr %7, align 4
  call void @llvm.lifetime.start.p0(i64 8, ptr %8) #10
  store ptr null, ptr %8, align 8
  call void @llvm.lifetime.start.p0(i64 4, ptr %9) #10
  %11 = load i32, ptr %7, align 4
  %12 = icmp slt i32 %11, 2
  br i1 %12, label %13, label %38

13:                                               ; preds = %3
  %14 = load ptr, ptr %5, align 8
  %15 = call i32 @node_name2bitmap(ptr noundef %14, i1 noundef zeroext false, ptr noundef %8, ptr noundef null)
  store i32 %15, ptr %9, align 4
  %16 = load i32, ptr %9, align 4
  %17 = icmp ne i32 %16, 0
  br i1 %17, label %18, label %31

18:                                               ; preds = %13
  br label %19

19:                                               ; preds = %18
  br label %20

20:                                               ; preds = %19
  %21 = call i32 @get_log_level()
  %22 = icmp sge i32 %21, 3
  br i1 %22, label %23, label %25

23:                                               ; preds = %20
  %24 = load ptr, ptr %5, align 8
  call void (i32, ptr, ...) @log_var(i32 noundef 3, ptr noundef @.str.51, ptr noundef @__func__.update_node_active_features, ptr noundef %24)
  br label %25

25:                                               ; preds = %23, %20
  br label %26

26:                                               ; preds = %25
  br label %27

27:                                               ; preds = %26
  br label %28

28:                                               ; preds = %27
  br label %29

29:                                               ; preds = %28
  %30 = load i32, ptr %9, align 4
  store i32 %30, ptr %4, align 4
  store i32 1, ptr %10, align 4
  br label %49

31:                                               ; preds = %13
  %32 = load ptr, ptr @active_feature_list, align 8
  %33 = load ptr, ptr %6, align 8
  %34 = load ptr, ptr %8, align 8
  call void @update_feature_list(ptr noundef %32, ptr noundef %33, ptr noundef %34)
  %35 = load ptr, ptr %6, align 8
  %36 = load ptr, ptr %8, align 8
  %37 = call i32 @node_features_g_node_update(ptr noundef %35, ptr noundef %36)
  br label %38

38:                                               ; preds = %31, %3
  %39 = load ptr, ptr %5, align 8
  %40 = load ptr, ptr %6, align 8
  %41 = load i32, ptr %7, align 4
  call void @_update_node_features_post(ptr noundef %39, ptr noundef @update_node_active_features.last_active_features, ptr noundef %40, ptr noundef @update_node_active_features.last_node_bitmap, ptr noundef %8, i32 noundef %41, ptr noundef @.str.52)
  br label %42

42:                                               ; preds = %38
  %43 = load ptr, ptr %8, align 8
  %44 = icmp ne ptr %43, null
  br i1 %44, label %45, label %46

45:                                               ; preds = %42
  call void @slurm_bit_free(ptr noundef %8)
  br label %46

46:                                               ; preds = %45, %42
  store ptr null, ptr %8, align 8
  br label %47

47:                                               ; preds = %46
  br label %48

48:                                               ; preds = %47
  store i32 0, ptr %4, align 4
  store i32 1, ptr %10, align 4
  br label %49

49:                                               ; preds = %48, %29
  call void @llvm.lifetime.end.p0(i64 4, ptr %9) #10
  call void @llvm.lifetime.end.p0(i64 8, ptr %8) #10
  %50 = load i32, ptr %4, align 4
  ret i32 %50
}