; Function Attrs: nounwind uwtable
define dso_local i32 @update_node_active_features(ptr noundef %0, ptr noundef %1, i32 noundef %2) local_unnamed_addr #0 {
  %4 = alloca ptr, align 8
  call void @llvm.lifetime.start.p0(i64 8, ptr nonnull %4) #15
  store ptr null, ptr %4, align 8
  %5 = icmp slt i32 %2, 2
  br i1 %5, label %6, label %17

6:                                                ; preds = %3
  %7 = call i32 @node_name2bitmap(ptr noundef %0, i1 noundef zeroext false, ptr noundef nonnull %4, ptr noundef null) #15
  %.not = icmp eq i32 %7, 0
  br i1 %.not, label %12, label %8

8:                                                ; preds = %6
  %9 = call i32 @get_log_level() #15
  %10 = icmp sgt i32 %9, 2
  br i1 %10, label %11, label %20

11:                                               ; preds = %8
  call void (i32, ptr, ...) @log_var(i32 noundef 3, ptr noundef nonnull @.str.51, ptr noundef nonnull @__func__.update_node_active_features, ptr noundef %0) #15
  br label %20

12:                                               ; preds = %6
  %13 = load ptr, ptr @active_feature_list, align 8
  %14 = load ptr, ptr %4, align 8
  call void @update_feature_list(ptr noundef %13, ptr noundef %1, ptr noundef %14) #15
  %15 = load ptr, ptr %4, align 8
  %16 = call i32 @node_features_g_node_update(ptr noundef %1, ptr noundef %15) #15
  br label %17

17:                                               ; preds = %12, %3
  call fastcc void @_update_node_features_post(ptr noundef %0, ptr noundef nonnull @update_node_active_features.last_active_features, ptr noundef %1, ptr noundef nonnull @update_node_active_features.last_node_bitmap, ptr noundef %4, i32 noundef %2, ptr noundef nonnull @.str.52)
  %18 = load ptr, ptr %4, align 8
  %.not11 = icmp eq ptr %18, null
  br i1 %.not11, label %20, label %19

19:                                               ; preds = %17
  call void @slurm_bit_free(ptr noundef nonnull %4) #15
  br label %20

20:                                               ; preds = %17, %19, %8, %11
  %.0 = phi i32 [ %7, %11 ], [ %7, %8 ], [ 0, %19 ], [ 0, %17 ]
  call void @llvm.lifetime.end.p0(i64 8, ptr nonnull %4) #15
  ret i32 %.0
}